; Function Attrs: mustprogress uwtable
define internal void @_ZNSt17_Function_handlerIFSt10unique_ptrIN7testing12_GLOBAL__N_132BasicGuaranteeWithExtraContractsESt14default_deleteIS3_EEvENS1_19exceptions_internal14DefaultFactoryIS3_EEE9_M_invokeERKSt9_Any_data(ptr noalias nocapture writeonly sret(%"class.std::unique_ptr.365") align 8 %agg.result, ptr nocapture noundef nonnull readonly align 8 dereferenceable(16) %__functor) #3 align 2 personality ptr @__gxx_personality_v0 {
entry:
  %call.val = load i32, ptr %__functor, align 8
  tail call void @llvm.experimental.noalias.scope.decl(metadata !438)
  tail call void @llvm.experimental.noalias.scope.decl(metadata !441)
  tail call void @llvm.experimental.noalias.scope.decl(metadata !444)
  tail call void @llvm.experimental.noalias.scope.decl(metadata !447)
  %call.i.i.i.i = tail call noalias noundef nonnull dereferenceable(4) ptr @_Znwm(i64 noundef 4) #25, !noalias !450
  store i32 %call.val, ptr %call.i.i.i.i, align 4, !noalias !450
  store ptr %call.i.i.i.i, ptr %agg.result, align 8, !alias.scope !450
  ret void
}